(dp0
S'_AgentService:AgentInfo'
p1
(dp2
S'com.plexapp.agents.fanarttv'
p3
(lp4
(dp5
S'media_types'
p6
(lp7
S'Movie'
p8
asS'primary_provider'
p9
I00
sS'fallback_agent'
p10
NsS'contributes_to'
p11
(lp12
S'com.plexapp.agents.imdb'
p13
aS'com.plexapp.agents.themoviedb'
p14
asS'has_attribution'
p15
I01
sS'languages'
p16
(lp17
S'xn'
p18
asS'persist_stored_files'
p19
I01
sS'version'
p20
I0
sS'accepts_from'
p21
NsS'prefs'
p22
I01
sS'name'
p23
S'Fanart.tv'
p24
sa(dp25
S'media_types'
p26
(lp27
S'TV_Show'
p28
asS'primary_provider'
p29
I00
sS'fallback_agent'
p30
NsS'contributes_to'
p31
(lp32
S'com.plexapp.agents.thetvdb'
p33
aS'com.plexapp.agents.themoviedb'
p34
asg15
I01
sS'languages'
p35
(lp36
S'xn'
p37
asS'persist_stored_files'
p38
I01
sS'version'
p39
I0
sS'accepts_from'
p40
NsS'prefs'
p41
I01
sS'name'
p42
S'Fanart.tv'
p43
sa(dp44
S'media_types'
p45
(lp46
S'Artist'
p47
asS'primary_provider'
p48
I00
sS'fallback_agent'
p49
NsS'contributes_to'
p50
(lp51
S'com.plexapp.agents.lastfm'
p52
asg15
I01
sS'languages'
p53
(lp54
S'xn'
p55
asS'persist_stored_files'
p56
I01
sS'version'
p57
I0
sS'accepts_from'
p58
NsS'prefs'
p59
I01
sS'name'
p60
S'Fanart.tv'
p61
sa(dp62
S'media_types'
p63
(lp64
S'Album'
p65
asS'primary_provider'
p66
I00
sS'fallback_agent'
p67
NsS'contributes_to'
p68
(lp69
S'com.plexapp.agents.lastfm'
p70
asg15
I01
sS'languages'
p71
(lp72
S'xn'
p73
asS'persist_stored_files'
p74
I01
sS'version'
p75
I0
sS'accepts_from'
p76
NsS'prefs'
p77
I01
sS'name'
p78
S'Fanart.tv'
p79
sasS'com.plexapp.agents.none'
p80
(lp81
(dp82
S'media_types'
p83
(lp84
S'Movie'
p85
asS'primary_provider'
p86
I01
sS'fallback_agent'
p87
NsS'contributes_to'
p88
Nsg15
I00
sS'languages'
p89
(lp90
S'xn'
p91
asS'persist_stored_files'
p92
I01
sS'version'
p93
I0
sS'accepts_from'
p94
NsS'prefs'
p95
I00
sS'name'
p96
S'Personal Media'
p97
sa(dp98
S'media_types'
p99
(lp100
S'TV_Show'
p101
asS'primary_provider'
p102
I01
sS'fallback_agent'
p103
NsS'contributes_to'
p104
Nsg15
I00
sS'languages'
p105
(lp106
S'xn'
p107
asS'persist_stored_files'
p108
I01
sS'version'
p109
I0
sS'accepts_from'
p110
NsS'prefs'
p111
I00
sS'name'
p112
S'Personal Media Shows'
p113
sa(dp114
S'media_types'
p115
(lp116
S'Artist'
p117
asS'primary_provider'
p118
I01
sS'fallback_agent'
p119
NsS'contributes_to'
p120
Nsg15
I00
sS'languages'
p121
(lp122
S'xn'
p123
asS'persist_stored_files'
p124
I01
sS'version'
p125
I0
sS'accepts_from'
p126
NsS'prefs'
p127
I00
sS'name'
p128
S'Personal Media Artists'
p129
sa(dp130
S'media_types'
p131
(lp132
S'Album'
p133
asS'primary_provider'
p134
I01
sS'fallback_agent'
p135
NsS'contributes_to'
p136
Nsg15
I00
sS'languages'
p137
(lp138
S'xn'
p139
asS'persist_stored_files'
p140
I01
sS'version'
p141
I0
sS'accepts_from'
p142
NsS'prefs'
p143
I00
sS'name'
p144
S'Personal Media Albums'
p145
sa(dp146
S'media_types'
p147
(lp148
S'Photo'
p149
asS'primary_provider'
p150
I01
sS'fallback_agent'
p151
NsS'contributes_to'
p152
Nsg15
I00
sS'languages'
p153
(lp154
S'en'
p155
aS'ar'
p156
aS'bg'
p157
aS'ca'
p158
aS'cs'
p159
aS'cy'
p160
aS'da'
p161
aS'de'
p162
aS'el'
p163
aS'es'
p164
aS'et'
p165
aS'fa'
p166
aS'fi'
p167
aS'fr'
p168
aS'he'
p169
aS'hi'
p170
aS'hr'
p171
aS'ht'
p172
aS'hu'
p173
aS'id'
p174
aS'it'
p175
aS'ja'
p176
aS'ko'
p177
aS'lt'
p178
aS'lv'
p179
aS'ms'
p180
aS'mt'
p181
aS'nl'
p182
aS'no'
p183
aS'pl'
p184
aS'pt'
p185
aS'ro'
p186
aS'ru'
p187
aS'sk'
p188
aS'sv'
p189
aS'sl'
p190
aS'sr'
p191
aS'th'
p192
aS'tr'
p193
aS'uk'
p194
aS'ur'
p195
aS'vi'
p196
aS'zh'
p197
aS'xn'
p198
asS'persist_stored_files'
p199
I01
sS'version'
p200
I0
sS'accepts_from'
p201
NsS'prefs'
p202
I00
sS'name'
p203
S'Photos'
p204
sasS'tv.plex.agents.music'
p205
(lp206
(dp207
S'media_types'
p208
(lp209
S'Artist'
p210
asS'primary_provider'
p211
I01
sS'fallback_agent'
p212
NsS'contributes_to'
p213
(lp214
S'com.plexapp.agents.localmedia'
p215
asg15
I01
sS'languages'
p216
(lp217
S'en'
p218
aS'ar'
p219
aS'bg'
p220
aS'zh'
p221
aS'hr'
p222
aS'cs'
p223
aS'da'
p224
aS'nl'
p225
aS'fi'
p226
aS'fr'
p227
aS'de'
p228
aS'el'
p229
aS'hu'
p230
aS'id'
p231
aS'it'
p232
aS'ja'
p233
aS'ko'
p234
aS'nn'
p235
aS'pl'
p236
aS'pt'
p237
aS'ro'
p238
aS'ru'
p239
aS'sr'
p240
aS'sk'
p241
aS'es'
p242
aS'sv'
p243
aS'th'
p244
aS'tr'
p245
aS'vi'
p246
aS'xx'
p247
asS'persist_stored_files'
p248
I01
sS'version'
p249
I0
sS'accepts_from'
p250
NsS'prefs'
p251
I01
sS'name'
p252
S'Plex Music'
p253
sa(dp254
S'media_types'
p255
(lp256
S'Album'
p257
asS'primary_provider'
p258
I01
sS'fallback_agent'
p259
NsS'contributes_to'
p260
(lp261
S'com.plexapp.agents.localmedia'
p262
asg15
I01
sS'languages'
p263
g217
sS'persist_stored_files'
p264
I01
sS'version'
p265
I0
sS'accepts_from'
p266
NsS'prefs'
p267
I01
sS'name'
p268
S'Plex Music'
p269
sasS'com.plexapp.agents.opensubtitles'
p270
(lp271
(dp272
S'media_types'
p273
(lp274
S'Movie'
p275
asS'primary_provider'
p276
I00
sS'fallback_agent'
p277
NsS'contributes_to'
p278
(lp279
S'com.plexapp.agents.imdb'
p280
asg15
I00
sS'languages'
p281
(lp282
S'xn'
p283
asS'persist_stored_files'
p284
I01
sS'version'
p285
I0
sS'accepts_from'
p286
NsS'prefs'
p287
I01
sS'name'
p288
S'OpenSubtitles.org'
p289
sa(dp290
S'media_types'
p291
(lp292
S'TV_Show'
p293
asS'primary_provider'
p294
I00
sS'fallback_agent'
p295
NsS'contributes_to'
p296
(lp297
S'com.plexapp.agents.thetvdb'
p298
asg15
I00
sS'languages'
p299
(lp300
S'xn'
p301
asS'persist_stored_files'
p302
I01
sS'version'
p303
I0
sS'accepts_from'
p304
NsS'prefs'
p305
I01
sS'name'
p306
S'OpenSubtitles.org'
p307
sasS'com.plexapp.agents.imdb'
p308
(lp309
(dp310
S'media_types'
p311
(lp312
S'Movie'
p313
asS'primary_provider'
p314
I01
sS'fallback_agent'
p315
NsS'contributes_to'
p316
(lp317
S'com.plexapp.agents.themoviedb'
p318
asS'has_attribution'
p319
I01
sS'languages'
p320
(lp321
S'en'
p322
aS'sv'
p323
aS'fr'
p324
aS'es'
p325
aS'nl'
p326
aS'de'
p327
aS'it'
p328
aS'da'
p329
aS'ar'
p330
aS'ca'
p331
aS'zh'
p332
aS'cs'
p333
aS'et'
p334
aS'fi'
p335
aS'el'
p336
aS'he'
p337
aS'hi'
p338
aS'hu'
p339
aS'id'
p340
aS'ja'
p341
aS'ko'
p342
aS'lv'
p343
aS'no'
p344
aS'fa'
p345
aS'pl'
p346
aS'pt'
p347
aS'ro'
p348
aS'ru'
p349
aS'sk'
p350
aS'th'
p351
aS'tr'
p352
aS'uk'
p353
aS'vi'
p354
asS'persist_stored_files'
p355
I01
sS'version'
p356
I0
sS'accepts_from'
p357
(lp358
S'com.plexapp.agents.localmedia'
p359
asS'prefs'
p360
I01
sS'name'
p361
S'Plex Movie'
p362
sasS'com.plexapp.agents.lyricfind'
p363
(lp364
(dp365
S'media_types'
p366
(lp367
S'Album'
p368
asS'primary_provider'
p369
I00
sS'fallback_agent'
p370
NsS'contributes_to'
p371
(lp372
S'com.plexapp.agents.lastfm'
p373
aS'tv.plex.agents.music'
p374
aS'org.musicbrainz.agents.music'
p375
asg15
I01
sS'languages'
p376
(lp377
S'xn'
p378
asS'persist_stored_files'
p379
I01
sS'version'
p380
I0
sS'accepts_from'
p381
NsS'prefs'
p382
I00
sS'name'
p383
S'LyricFind'
p384
sasS'com.plexapp.agents.thetvdb'
p385
(lp386
(dp387
S'media_types'
p388
(lp389
S'TV_Show'
p390
asS'primary_provider'
p391
I01
sS'fallback_agent'
p392
NsS'contributes_to'
p393
Nsg15
I01
sS'languages'
p394
(lp395
S'en'
p396
aS'fr'
p397
aS'zh'
p398
aS'sv'
p399
aS'no'
p400
aS'da'
p401
aS'fi'
p402
aS'nl'
p403
aS'de'
p404
aS'it'
p405
aS'es'
p406
aS'pl'
p407
aS'hu'
p408
aS'el'
p409
aS'tr'
p410
aS'ru'
p411
aS'he'
p412
aS'ja'
p413
aS'pt'
p414
aS'cs'
p415
aS'ko'
p416
aS'sl'
p417
aS'hr'
p418
asS'persist_stored_files'
p419
I01
sS'version'
p420
I0
sS'accepts_from'
p421
NsS'prefs'
p422
I01
sS'name'
p423
S'TheTVDB'
p424
sasS'tv.plex.agents.movie'
p425
(lp426
(dp427
S'media_types'
p428
(lp429
S'Movie'
p430
asS'primary_provider'
p431
I01
sS'fallback_agent'
p432
NsS'contributes_to'
p433
Nsg15
I01
sS'languages'
p434
(lp435
sS'persist_stored_files'
p436
I01
sS'version'
p437
I0
sS'accepts_from'
p438
NsS'prefs'
p439
I01
sS'name'
p440
S'Plex Movie'
p441
sasS'tv.plex.agents.series'
p442
(lp443
(dp444
S'media_types'
p445
(lp446
S'TV_Show'
p447
asS'primary_provider'
p448
I01
sS'fallback_agent'
p449
NsS'contributes_to'
p450
Nsg15
I01
sS'languages'
p451
(lp452
sS'persist_stored_files'
p453
I01
sS'version'
p454
I0
sS'accepts_from'
p455
NsS'prefs'
p456
I01
sS'name'
p457
S'Plex TV Series'
p458
sasS'com.plexapp.agents.lastfm'
p459
(lp460
(dp461
S'media_types'
p462
(lp463
S'Artist'
p464
asS'primary_provider'
p465
I01
sS'fallback_agent'
p466
NsS'contributes_to'
p467
Nsg15
I01
sS'languages'
p468
(lp469
S'en'
p470
aS'sv'
p471
aS'fr'
p472
aS'es'
p473
aS'de'
p474
aS'pl'
p475
aS'it'
p476
aS'pt'
p477
aS'ja'
p478
aS'tr'
p479
aS'ru'
p480
aS'zh'
p481
asS'persist_stored_files'
p482
I01
sS'version'
p483
I0
sS'accepts_from'
p484
NsS'prefs'
p485
I01
sS'name'
p486
S'Last.fm'
p487
sa(dp488
S'media_types'
p489
(lp490
S'Album'
p491
asS'primary_provider'
p492
I01
sS'fallback_agent'
p493
NsS'contributes_to'
p494
Nsg15
I01
sS'languages'
p495
(lp496
S'en'
p497
aS'sv'
p498
aS'fr'
p499
aS'es'
p500
aS'de'
p501
aS'pl'
p502
aS'it'
p503
aS'pt'
p504
aS'ja'
p505
aS'tr'
p506
aS'ru'
p507
aS'zh'
p508
asS'persist_stored_files'
p509
I01
sS'version'
p510
I0
sS'accepts_from'
p511
NsS'prefs'
p512
I01
sS'name'
p513
S'Last.fm'
p514
sasS'org.musicbrainz.agents.music'
p515
(lp516
(dp517
S'media_types'
p518
(lp519
S'Artist'
p520
asS'primary_provider'
p521
I01
sS'fallback_agent'
p522
NsS'contributes_to'
p523
Nsg15
I01
sS'languages'
p524
(lp525
S'en'
p526
aS'ar'
p527
aS'bg'
p528
aS'zh'
p529
aS'hr'
p530
aS'cs'
p531
aS'da'
p532
aS'nl'
p533
aS'fi'
p534
aS'fr'
p535
aS'de'
p536
aS'el'
p537
aS'hu'
p538
aS'id'
p539
aS'it'
p540
aS'ja'
p541
aS'ko'
p542
aS'nn'
p543
aS'pl'
p544
aS'pt'
p545
aS'ro'
p546
aS'ru'
p547
aS'sr'
p548
aS'sk'
p549
aS'es'
p550
aS'sv'
p551
aS'th'
p552
aS'tr'
p553
aS'vi'
p554
aS'xx'
p555
asS'persist_stored_files'
p556
I01
sS'version'
p557
I0
sS'accepts_from'
p558
NsS'prefs'
p559
I01
sS'name'
p560
S'Musicbrainz'
p561
sa(dp562
S'media_types'
p563
(lp564
S'Album'
p565
asS'primary_provider'
p566
I01
sS'fallback_agent'
p567
NsS'contributes_to'
p568
Nsg15
I01
sS'languages'
p569
g525
sS'persist_stored_files'
p570
I01
sS'version'
p571
I0
sS'accepts_from'
p572
NsS'prefs'
p573
I01
sS'name'
p574
S'Musicbrainz'
p575
sasS'com.plexapp.agents.themoviedb'
p576
(lp577
(dp578
S'media_types'
p579
(lp580
S'Movie'
p581
asS'primary_provider'
p582
I01
sS'fallback_agent'
p583
NsS'contributes_to'
p584
Nsg15
I01
sS'languages'
p585
(lp586
S'en'
p587
aS'cs'
p588
aS'da'
p589
aS'de'
p590
aS'el'
p591
aS'es'
p592
aS'fi'
p593
aS'fr'
p594
aS'he'
p595
aS'hr'
p596
aS'hu'
p597
aS'it'
p598
aS'lv'
p599
aS'lt'
p600
aS'nl'
p601
aS'no'
p602
aS'pl'
p603
aS'pt'
p604
aS'ru'
p605
aS'sk'
p606
aS'sv'
p607
aS'th'
p608
aS'tr'
p609
aS'vi'
p610
aS'zh'
p611
aS'ko'
p612
asS'persist_stored_files'
p613
I01
sS'version'
p614
I0
sS'accepts_from'
p615
(lp616
S'com.plexapp.agents.localmedia'
p617
asS'prefs'
p618
I01
sS'name'
p619
S'The Movie Database'
p620
sa(dp621
S'media_types'
p622
(lp623
S'TV_Show'
p624
asS'primary_provider'
p625
I01
sS'fallback_agent'
p626
NsS'contributes_to'
p627
(lp628
S'com.plexapp.agents.thetvdb'
p629
asg15
I01
sS'languages'
p630
g586
sS'persist_stored_files'
p631
I01
sS'version'
p632
I0
sS'accepts_from'
p633
(lp634
S'com.plexapp.agents.localmedia'
p635
aS'com.plexapp.agents.thetvdb'
p636
asS'prefs'
p637
I01
sS'name'
p638
S'The Movie Database'
p639
sasS'com.plexapp.agents.htbackdrops'
p640
(lp641
(dp642
S'media_types'
p643
(lp644
S'Artist'
p645
asS'primary_provider'
p646
I00
sS'fallback_agent'
p647
NsS'contributes_to'
p648
(lp649
S'com.plexapp.agents.lastfm'
p650
asg15
I01
sS'languages'
p651
(lp652
S'ab'
p653
aS'aa'
p654
aS'af'
p655
aS'ak'
p656
aS'sq'
p657
aS'am'
p658
aS'ar'
p659
aS'an'
p660
aS'hy'
p661
aS'as'
p662
aS'av'
p663
aS'ae'
p664
aS'ay'
p665
aS'az'
p666
aS'bm'
p667
aS'ba'
p668
aS'eu'
p669
aS'be'
p670
aS'bn'
p671
aS'bh'
p672
aS'bi'
p673
aS'bs'
p674
aS'pb'
p675
aS'br'
p676
aS'bg'
p677
aS'my'
p678
aS'ca'
p679
aS'ch'
p680
aS'ce'
p681
aS'ny'
p682
aS'zh'
p683
aS'cu'
p684
aS'cv'
p685
aS'kw'
p686
aS'co'
p687
aS'cr'
p688
aS'hr'
p689
aS'cs'
p690
aS'da'
p691
aS'dv'
p692
aS'nl'
p693
aS'dz'
p694
aS'en'
p695
aS'eo'
p696
aS'et'
p697
aS'ee'
p698
aS'fo'
p699
aS'fj'
p700
aS'fi'
p701
aS'fr'
p702
aS'fy'
p703
aS'ff'
p704
aS'gd'
p705
aS'gl'
p706
aS'lg'
p707
aS'ka'
p708
aS'de'
p709
aS'el'
p710
aS'gn'
p711
aS'gu'
p712
aS'ht'
p713
aS'ha'
p714
aS'he'
p715
aS'hz'
p716
aS'hi'
p717
aS'ho'
p718
aS'hu'
p719
aS'is'
p720
aS'io'
p721
aS'ig'
p722
aS'id'
p723
aS'ia'
p724
aS'ie'
p725
aS'iu'
p726
aS'ik'
p727
aS'ga'
p728
aS'it'
p729
aS'ja'
p730
aS'jv'
p731
aS'kl'
p732
aS'kn'
p733
aS'kr'
p734
aS'ks'
p735
aS'kk'
p736
aS'km'
p737
aS'ki'
p738
aS'rw'
p739
aS'ky'
p740
aS'kv'
p741
aS'kg'
p742
aS'ko'
p743
aS'kj'
p744
aS'ku'
p745
aS'lo'
p746
aS'la'
p747
aS'lv'
p748
aS'li'
p749
aS'ln'
p750
aS'lt'
p751
aS'lu'
p752
aS'lb'
p753
aS'mk'
p754
aS'mg'
p755
aS'ms'
p756
aS'ml'
p757
aS'mt'
p758
aS'gv'
p759
aS'mi'
p760
aS'mr'
p761
aS'mh'
p762
aS'mo'
p763
aS'mn'
p764
aS'na'
p765
aS'nv'
p766
aS'ng'
p767
aS'ne'
p768
aS'xn'
p769
aS'nd'
p770
aS'no'
p771
aS'nb'
p772
aS'nn'
p773
aS'oc'
p774
aS'oj'
p775
aS'or'
p776
aS'om'
p777
aS'os'
p778
aS'pi'
p779
aS'pa'
p780
aS'fa'
p781
aS'pl'
p782
aS'pt'
p783
aS'ps'
p784
aS'qu'
p785
aS'rm'
p786
aS'ro'
p787
aS'rn'
p788
aS'ru'
p789
aS'se'
p790
aS'sm'
p791
aS'sg'
p792
aS'sa'
p793
aS'sc'
p794
aS'sr'
p795
aS'sn'
p796
aS'ii'
p797
aS'sd'
p798
aS'si'
p799
aS'sk'
p800
aS'sl'
p801
aS'so'
p802
aS'st'
p803
aS'nr'
p804
aS'es'
p805
aS'su'
p806
aS'sw'
p807
aS'ss'
p808
aS'sv'
p809
aS'tl'
p810
aS'ty'
p811
aS'tg'
p812
aS'ta'
p813
aS'tt'
p814
aS'te'
p815
aS'th'
p816
aS'bo'
p817
aS'ti'
p818
aS'to'
p819
aS'ts'
p820
aS'tn'
p821
aS'tr'
p822
aS'tk'
p823
aS'tw'
p824
aS'ug'
p825
aS'uk'
p826
aS'ur'
p827
aS'uz'
p828
aS've'
p829
aS'vi'
p830
aS'vo'
p831
aS'wa'
p832
aS'cy'
p833
aS'wo'
p834
aS'xh'
p835
aS'yi'
p836
aS'yo'
p837
aS'za'
p838
aS'zu'
p839
asS'persist_stored_files'
p840
I01
sS'version'
p841
I0
sS'accepts_from'
p842
NsS'prefs'
p843
I00
sS'name'
p844
S'Home Theater Backdrops'
p845
sasS'com.plexapp.agents.movieposterdb'
p846
(lp847
(dp848
S'media_types'
p849
(lp850
S'Movie'
p851
asS'primary_provider'
p852
I00
sS'fallback_agent'
p853
NsS'contributes_to'
p854
(lp855
S'com.plexapp.agents.imdb'
p856
asg15
I01
sS'languages'
p857
(lp858
S'xn'
p859
asS'persist_stored_files'
p860
I01
sS'version'
p861
I0
sS'accepts_from'
p862
NsS'prefs'
p863
I00
sS'name'
p864
S'CineMaterial'
p865
sasS'com.plexapp.agents.localmedia'
p866
(lp867
(dp868
S'media_types'
p869
(lp870
S'Movie'
p871
asS'primary_provider'
p872
I00
sS'fallback_agent'
p873
NsS'contributes_to'
p874
(lp875
S'com.plexapp.agents.imdb'
p876
aS'com.plexapp.agents.none'
p877
asg15
I00
sS'languages'
p878
(lp879
S'xn'
p880
asS'persist_stored_files'
p881
I00
sS'version'
p882
I0
sS'accepts_from'
p883
NsS'prefs'
p884
I01
sS'name'
p885
S'Local Media Assets (Movies)'
p886
sa(dp887
S'media_types'
p888
(lp889
S'TV_Show'
p890
asS'primary_provider'
p891
I00
sS'fallback_agent'
p892
NsS'contributes_to'
p893
(lp894
S'com.plexapp.agents.thetvdb'
p895
aS'com.plexapp.agents.none'
p896
asg15
I00
sS'languages'
p897
(lp898
S'xn'
p899
asS'persist_stored_files'
p900
I00
sS'version'
p901
I0
sS'accepts_from'
p902
NsS'prefs'
p903
I01
sS'name'
p904
S'Local Media Assets (TV)'
p905
sa(dp906
S'media_types'
p907
(lp908
S'Artist'
p909
asS'primary_provider'
p910
I00
sS'fallback_agent'
p911
NsS'contributes_to'
p912
(lp913
S'com.plexapp.agents.discogs'
p914
aS'com.plexapp.agents.lastfm'
p915
aS'com.plexapp.agents.plexmusic'
p916
aS'com.plexapp.agents.none'
p917
aS'tv.plex.agents.music'
p918
aS'org.musicbrainz.agents.music'
p919
asg15
I00
sS'languages'
p920
(lp921
S'xn'
p922
asS'persist_stored_files'
p923
I00
sS'version'
p924
I0
sS'accepts_from'
p925
NsS'prefs'
p926
I01
sS'name'
p927
S'Local Media Assets (Artists)'
p928
sa(dp929
S'media_types'
p930
(lp931
S'Artist'
p932
asS'primary_provider'
p933
I00
sS'fallback_agent'
p934
NsS'contributes_to'
p935
(lp936
S'com.plexapp.agents.plexmusic'
p937
asg15
I00
sS'languages'
p938
g921
sS'persist_stored_files'
p939
I00
sS'version'
p940
I2
sS'accepts_from'
p941
NsS'prefs'
p942
I01
sS'name'
p943
S'Local Media Assets (Artists)'
p944
sa(dp945
S'media_types'
p946
(lp947
S'Album'
p948
asS'primary_provider'
p949
I00
sS'fallback_agent'
p950
NsS'contributes_to'
p951
(lp952
S'com.plexapp.agents.discogs'
p953
aS'com.plexapp.agents.lastfm'
p954
aS'com.plexapp.agents.plexmusic'
p955
aS'com.plexapp.agents.none'
p956
aS'tv.plex.agents.music'
p957
aS'org.musicbrainz.agents.music'
p958
asg15
I00
sS'languages'
p959
(lp960
S'xn'
p961
asS'persist_stored_files'
p962
I00
sS'version'
p963
I0
sS'accepts_from'
p964
NsS'prefs'
p965
I01
sS'name'
p966
S'Local Media Assets (Albums)'
p967
sasS'com.plexapp.agents.plexthememusic'
p968
(lp969
(dp970
S'media_types'
p971
(lp972
S'TV_Show'
p973
asS'primary_provider'
p974
I00
sS'fallback_agent'
p975
NsS'contributes_to'
p976
(lp977
S'com.plexapp.agents.thetvdb'
p978
aS'com.plexapp.agents.thetvdbdvdorder'
p979
aS'com.plexapp.agents.themoviedb'
p980
asg15
I00
sS'languages'
p981
(lp982
S'xn'
p983
asS'persist_stored_files'
p984
I01
sS'version'
p985
I0
sS'accepts_from'
p986
NsS'prefs'
p987
I00
sS'name'
p988
S'Plex Theme Music'
p989
sass.